; Function Attrs: nounwind uwtable
define internal range(i32 -1, 1) i32 @np_float(ptr noundef readonly captures(none) %0, ptr noundef writeonly captures(none) %1, ptr noundef %2, ptr readnone captures(none) %3) #0 {
  %5 = tail call double @PyFloat_AsDouble(ptr noundef %2) #7
  %6 = fptrunc double %5 to float
  %7 = fcmp oeq float %6, -1.000000e+00
  br i1 %7, label %8, label %13

8:                                                ; preds = %4
  %9 = tail call ptr @PyErr_Occurred() #7
  %.not = icmp eq ptr %9, null
  br i1 %.not, label %13, label %10

10:                                               ; preds = %8
  %11 = getelementptr inbounds nuw i8, ptr %0, i64 24
  %12 = load ptr, ptr %11, align 8, !tbaa !16
  tail call void @PyErr_SetString(ptr noundef %12, ptr noundef nonnull @.str.56) #7
  br label %14

13:                                               ; preds = %8, %4
  store float %6, ptr %1, align 1
  br label %14

14:                                               ; preds = %13, %10
  %.0 = phi i32 [ -1, %10 ], [ 0, %13 ]
  ret i32 %.0
}